; ModuleID = '1952.c'
source_filename = "1952.c"
target datalayout = "e-m:e-p270:32:32-p271:32:32-p272:64:64-i64:64-f80:128-n8:16:32:64-S128"
target triple = "x86_64-pc-linux-gnu"

%struct.stu = type { [50 x i8], [50 x i8], [1 x i8], i32, [50 x i8], [50 x i8], %struct.stu* }

@.str = private unnamed_addr constant [3 x i8] c"%s\00", align 1
@.str.1 = private unnamed_addr constant [3 x i8] c"%d\00", align 1
@.str.2 = private unnamed_addr constant [19 x i8] c"%s %s %c %d %s %s\0A\00", align 1

; Function Attrs: noinline nounwind uwtable
define dso_local i32 @main() #0 {
  %1 = alloca i32, align 4
  %2 = alloca %struct.stu*, align 8
  %3 = alloca %struct.stu*, align 8
  %4 = alloca %struct.stu*, align 8
  store i32 0, i32* %1, align 4
  %5 = call noalias i8* @malloc(i64 100) #3
  %6 = bitcast i8* %5 to %struct.stu*
  store %struct.stu* %6, %struct.stu** %3, align 8
  %7 = load %struct.stu*, %struct.stu** %3, align 8
  %8 = getelementptr inbounds %struct.stu, %struct.stu* %7, i32 0, i32 0
  %9 = getelementptr inbounds [50 x i8], [50 x i8]* %8, i64 0, i64 0
  %10 = call i32 (i8*, ...) @__isoc99_scanf(i8* getelementptr inbounds ([3 x i8], [3 x i8]* @.str, i64 0, i64 0), i8* %9)
  %11 = load %struct.stu*, %struct.stu** %3, align 8
  %12 = getelementptr inbounds %struct.stu, %struct.stu* %11, i32 0, i32 1
  %13 = getelementptr inbounds [50 x i8], [50 x i8]* %12, i64 0, i64 0
  %14 = call i32 (i8*, ...) @__isoc99_scanf(i8* getelementptr inbounds ([3 x i8], [3 x i8]* @.str, i64 0, i64 0), i8* %13)
  %15 = load %struct.stu*, %struct.stu** %3, align 8
  %16 = getelementptr inbounds %struct.stu, %struct.stu* %15, i32 0, i32 2
  %17 = getelementptr inbounds [1 x i8], [1 x i8]* %16, i64 0, i64 0
  %18 = call i32 (i8*, ...) @__isoc99_scanf(i8* getelementptr inbounds ([3 x i8], [3 x i8]* @.str, i64 0, i64 0), i8* %17)
  %19 = load %struct.stu*, %struct.stu** %3, align 8
  %20 = getelementptr inbounds %struct.stu, %struct.stu* %19, i32 0, i32 3
  %21 = call i32 (i8*, ...) @__isoc99_scanf(i8* getelementptr inbounds ([3 x i8], [3 x i8]* @.str.1, i64 0, i64 0), i32* %20)
  %22 = load %struct.stu*, %struct.stu** %3, align 8
  %23 = getelementptr inbounds %struct.stu, %struct.stu* %22, i32 0, i32 4
  %24 = getelementptr inbounds [50 x i8], [50 x i8]* %23, i64 0, i64 0
  %25 = call i32 (i8*, ...) @__isoc99_scanf(i8* getelementptr inbounds ([3 x i8], [3 x i8]* @.str, i64 0, i64 0), i8* %24)
  %26 = load %struct.stu*, %struct.stu** %3, align 8
  %27 = getelementptr inbounds %struct.stu, %struct.stu* %26, i32 0, i32 5
  %28 = getelementptr inbounds [50 x i8], [50 x i8]* %27, i64 0, i64 0
  %29 = call i32 (i8*, ...) @__isoc99_scanf(i8* getelementptr inbounds ([3 x i8], [3 x i8]* @.str, i64 0, i64 0), i8* %28)
  %30 = load %struct.stu*, %struct.stu** %3, align 8
  %31 = getelementptr inbounds %struct.stu, %struct.stu* %30, i32 0, i32 6
  store %struct.stu* null, %struct.stu** %31, align 8
  %32 = load %struct.stu*, %struct.stu** %3, align 8
  store %struct.stu* %32, %struct.stu** %4, align 8
  %33 = load %struct.stu*, %struct.stu** %3, align 8
  store %struct.stu* %33, %struct.stu** %2, align 8
  br label %34

34:                                               ; preds = %76, %0
  %35 = call noalias i8* @malloc(i64 100) #3
  %36 = bitcast i8* %35 to %struct.stu*
  store %struct.stu* %36, %struct.stu** %3, align 8
  %37 = load %struct.stu*, %struct.stu** %3, align 8
  %38 = getelementptr inbounds %struct.stu, %struct.stu* %37, i32 0, i32 0
  %39 = getelementptr inbounds [50 x i8], [50 x i8]* %38, i64 0, i64 0
  %40 = call i32 (i8*, ...) @__isoc99_scanf(i8* getelementptr inbounds ([3 x i8], [3 x i8]* @.str, i64 0, i64 0), i8* %39)
  %41 = load %struct.stu*, %struct.stu** %3, align 8
  %42 = getelementptr inbounds %struct.stu, %struct.stu* %41, i32 0, i32 0
  %43 = getelementptr inbounds [50 x i8], [50 x i8]* %42, i64 0, i64 0
  %44 = load i8, i8* %43, align 8
  %45 = sext i8 %44 to i32
  %46 = icmp eq i32 %45, 101
  br i1 %46, label %47, label %51

47:                                               ; preds = %34
  %48 = load %struct.stu*, %struct.stu** %3, align 8
  %49 = bitcast %struct.stu* %48 to i8*
  call void @free(i8* %49) #3
  %50 = load %struct.stu*, %struct.stu** %4, align 8
  store %struct.stu* %50, %struct.stu** %2, align 8
  br label %77

51:                                               ; preds = %34
  %52 = load %struct.stu*, %struct.stu** %3, align 8
  %53 = getelementptr inbounds %struct.stu, %struct.stu* %52, i32 0, i32 1
  %54 = getelementptr inbounds [50 x i8], [50 x i8]* %53, i64 0, i64 0
  %55 = call i32 (i8*, ...) @__isoc99_scanf(i8* getelementptr inbounds ([3 x i8], [3 x i8]* @.str, i64 0, i64 0), i8* %54)
  %56 = load %struct.stu*, %struct.stu** %3, align 8
  %57 = getelementptr inbounds %struct.stu, %struct.stu* %56, i32 0, i32 2
  %58 = getelementptr inbounds [1 x i8], [1 x i8]* %57, i64 0, i64 0
  %59 = call i32 (i8*, ...) @__isoc99_scanf(i8* getelementptr inbounds ([3 x i8], [3 x i8]* @.str, i64 0, i64 0), i8* %58)
  %60 = load %struct.stu*, %struct.stu** %3, align 8
  %61 = getelementptr inbounds %struct.stu, %struct.stu* %60, i32 0, i32 3
  %62 = call i32 (i8*, ...) @__isoc99_scanf(i8* getelementptr inbounds ([3 x i8], [3 x i8]* @.str.1, i64 0, i64 0), i32* %61)
  %63 = load %struct.stu*, %struct.stu** %3, align 8
  %64 = getelementptr inbounds %struct.stu, %struct.stu* %63, i32 0, i32 4
  %65 = getelementptr inbounds [50 x i8], [50 x i8]* %64, i64 0, i64 0
  %66 = call i32 (i8*, ...) @__isoc99_scanf(i8* getelementptr inbounds ([3 x i8], [3 x i8]* @.str, i64 0, i64 0), i8* %65)
  %67 = load %struct.stu*, %struct.stu** %3, align 8
  %68 = getelementptr inbounds %struct.stu, %struct.stu* %67, i32 0, i32 5
  %69 = getelementptr inbounds [50 x i8], [50 x i8]* %68, i64 0, i64 0
  %70 = call i32 (i8*, ...) @__isoc99_scanf(i8* getelementptr inbounds ([3 x i8], [3 x i8]* @.str, i64 0, i64 0), i8* %69)
  %71 = load %struct.stu*, %struct.stu** %4, align 8
  %72 = load %struct.stu*, %struct.stu** %3, align 8
  %73 = getelementptr inbounds %struct.stu, %struct.stu* %72, i32 0, i32 6
  store %struct.stu* %71, %struct.stu** %73, align 8
  %74 = load %struct.stu*, %struct.stu** %3, align 8
  store %struct.stu* %74, %struct.stu** %4, align 8
  br label %75

75:                                               ; preds = %51
  br label %76

76:                                               ; preds = %75
  br i1 true, label %34, label %77

77:                                               ; preds = %76, %47
  br label %78

78:                                               ; preds = %81, %77
  %79 = load %struct.stu*, %struct.stu** %2, align 8
  %80 = icmp ne %struct.stu* %79, null
  br i1 %80, label %81, label %106

81:                                               ; preds = %78
  %82 = load %struct.stu*, %struct.stu** %2, align 8
  %83 = getelementptr inbounds %struct.stu, %struct.stu* %82, i32 0, i32 0
  %84 = getelementptr inbounds [50 x i8], [50 x i8]* %83, i64 0, i64 0
  %85 = load %struct.stu*, %struct.stu** %2, align 8
  %86 = getelementptr inbounds %struct.stu, %struct.stu* %85, i32 0, i32 1
  %87 = getelementptr inbounds [50 x i8], [50 x i8]* %86, i64 0, i64 0
  %88 = load %struct.stu*, %struct.stu** %2, align 8
  %89 = getelementptr inbounds %struct.stu, %struct.stu* %88, i32 0, i32 2
  %90 = getelementptr inbounds [1 x i8], [1 x i8]* %89, i64 0, i64 0
  %91 = load i8, i8* %90, align 4
  %92 = sext i8 %91 to i32
  %93 = load %struct.stu*, %struct.stu** %2, align 8
  %94 = getelementptr inbounds %struct.stu, %struct.stu* %93, i32 0, i32 3
  %95 = load i32, i32* %94, align 8
  %96 = load %struct.stu*, %struct.stu** %2, align 8
  %97 = getelementptr inbounds %struct.stu, %struct.stu* %96, i32 0, i32 4
  %98 = getelementptr inbounds [50 x i8], [50 x i8]* %97, i64 0, i64 0
  %99 = load %struct.stu*, %struct.stu** %2, align 8
  %100 = getelementptr inbounds %struct.stu, %struct.stu* %99, i32 0, i32 5
  %101 = getelementptr inbounds [50 x i8], [50 x i8]* %100, i64 0, i64 0
  %102 = call i32 (i8*, ...) @printf(i8* getelementptr inbounds ([19 x i8], [19 x i8]* @.str.2, i64 0, i64 0), i8* %84, i8* %87, i32 %92, i32 %95, i8* %98, i8* %101)
  %103 = load %struct.stu*, %struct.stu** %2, align 8
  %104 = getelementptr inbounds %struct.stu, %struct.stu* %103, i32 0, i32 6
  %105 = load %struct.stu*, %struct.stu** %104, align 8
  store %struct.stu* %105, %struct.stu** %2, align 8
  br label %78

106:                                              ; preds = %78
  %107 = load i32, i32* %1, align 4
  ret i32 %107
}

; Function Attrs: nounwind
declare dso_local noalias i8* @malloc(i64) #1

declare dso_local i32 @__isoc99_scanf(i8*, ...) #2

; Function Attrs: nounwind
declare dso_local void @free(i8*) #1

declare dso_local i32 @printf(i8*, ...) #2


!llvm.module.flags = !{!0}
!llvm.ident = !{!1}

!0 = !{i32 1, !"wchar_size", i32 4}
!1 = !{!"clang version 10.0.0-4ubuntu1 "}
